target datalayout = "e-m:e-p270:32:32-p271:32:32-p272:64:64-i64:64-i128:128-f80:128-n8:16:32:64-S128"
target triple = "x86_64-pc-linux-gnu"

%"class.std::vector" = type { %"struct.std::_Vector_base" }
%"struct.std::_Vector_base" = type { %"struct.std::_Vector_base<llvm::UseListOrder, std::allocator<llvm::UseListOrder>>::_Vector_impl" }
%"struct.std::_Vector_base<llvm::UseListOrder, std::allocator<llvm::UseListOrder>>::_Vector_impl" = type { %"struct.std::_Vector_base<llvm::UseListOrder, std::allocator<llvm::UseListOrder>>::_Vector_impl_data" }
%"struct.std::_Vector_base<llvm::UseListOrder, std::allocator<llvm::UseListOrder>>::_Vector_impl_data" = type { ptr, ptr, ptr }
%"class.llvm::ValueEnumerator" = type <{ %"class.std::vector", %"class.llvm::DenseMap", %"class.std::vector.0", %"class.llvm::DenseMap.5", %"class.std::vector.8", %"class.llvm::UniqueVector", %"class.std::vector.21", %"class.std::vector.21", %"class.llvm::DenseMap.26", %"class.llvm::SmallDenseMap", i8, [7 x i8], %"class.llvm::DenseMap.30", %"class.std::vector.33", %"class.llvm::DenseMap.38", %"class.std::vector.41", %"class.llvm::DenseMap.46", %"class.llvm::DenseMap.49", i32, [4 x i8], %"class.std::vector.52", i32, i32, i32, i32, i32, [4 x i8] }>
%"class.llvm::DenseMap" = type <{ ptr, i32, i32, i32, [4 x i8] }>
%"class.std::vector.0" = type { %"struct.std::_Vector_base.1" }
%"struct.std::_Vector_base.1" = type { %"struct.std::_Vector_base<llvm::Type *, std::allocator<llvm::Type *>>::_Vector_impl" }
%"struct.std::_Vector_base<llvm::Type *, std::allocator<llvm::Type *>>::_Vector_impl" = type { %"struct.std::_Vector_base<llvm::Type *, std::allocator<llvm::Type *>>::_Vector_impl_data" }
%"struct.std::_Vector_base<llvm::Type *, std::allocator<llvm::Type *>>::_Vector_impl_data" = type { ptr, ptr, ptr }
%"class.llvm::DenseMap.5" = type <{ ptr, i32, i32, i32, [4 x i8] }>
%"class.std::vector.8" = type { %"struct.std::_Vector_base.9" }
%"struct.std::_Vector_base.9" = type { %"struct.std::_Vector_base<std::pair<const llvm::Value *, unsigned int>, std::allocator<std::pair<const llvm::Value *, unsigned int>>>::_Vector_impl" }
%"struct.std::_Vector_base<std::pair<const llvm::Value *, unsigned int>, std::allocator<std::pair<const llvm::Value *, unsigned int>>>::_Vector_impl" = type { %"struct.std::_Vector_base<std::pair<const llvm::Value *, unsigned int>, std::allocator<std::pair<const llvm::Value *, unsigned int>>>::_Vector_impl_data" }
%"struct.std::_Vector_base<std::pair<const llvm::Value *, unsigned int>, std::allocator<std::pair<const llvm::Value *, unsigned int>>>::_Vector_impl_data" = type { ptr, ptr, ptr }
%"class.llvm::UniqueVector" = type { %"class.std::map", %"class.std::vector.16" }
%"class.std::map" = type { %"class.std::_Rb_tree" }
%"class.std::_Rb_tree" = type { %"struct.std::_Rb_tree<const llvm::Comdat *, std::pair<const llvm::Comdat *const, unsigned int>, std::_Select1st<std::pair<const llvm::Comdat *const, unsigned int>>, std::less<const llvm::Comdat *>>::_Rb_tree_impl" }
%"struct.std::_Rb_tree<const llvm::Comdat *, std::pair<const llvm::Comdat *const, unsigned int>, std::_Select1st<std::pair<const llvm::Comdat *const, unsigned int>>, std::less<const llvm::Comdat *>>::_Rb_tree_impl" = type { [8 x i8], %"struct.std::_Rb_tree_header" }
%"struct.std::_Rb_tree_header" = type { %"struct.std::_Rb_tree_node_base", i64 }
%"struct.std::_Rb_tree_node_base" = type { i32, ptr, ptr, ptr }
%"class.std::vector.16" = type { %"struct.std::_Vector_base.17" }
%"struct.std::_Vector_base.17" = type { %"struct.std::_Vector_base<const llvm::Comdat *, std::allocator<const llvm::Comdat *>>::_Vector_impl" }
%"struct.std::_Vector_base<const llvm::Comdat *, std::allocator<const llvm::Comdat *>>::_Vector_impl" = type { %"struct.std::_Vector_base<const llvm::Comdat *, std::allocator<const llvm::Comdat *>>::_Vector_impl_data" }
%"struct.std::_Vector_base<const llvm::Comdat *, std::allocator<const llvm::Comdat *>>::_Vector_impl_data" = type { ptr, ptr, ptr }
%"class.std::vector.21" = type { %"struct.std::_Vector_base.22" }
%"struct.std::_Vector_base.22" = type { %"struct.std::_Vector_base<const llvm::Metadata *, std::allocator<const llvm::Metadata *>>::_Vector_impl" }
%"struct.std::_Vector_base<const llvm::Metadata *, std::allocator<const llvm::Metadata *>>::_Vector_impl" = type { %"struct.std::_Vector_base<const llvm::Metadata *, std::allocator<const llvm::Metadata *>>::_Vector_impl_data" }
%"struct.std::_Vector_base<const llvm::Metadata *, std::allocator<const llvm::Metadata *>>::_Vector_impl_data" = type { ptr, ptr, ptr }
%"class.llvm::DenseMap.26" = type <{ ptr, i32, i32, i32, [4 x i8] }>
%"class.llvm::SmallDenseMap" = type { i32, i32, %"struct.llvm::AlignedCharArrayUnion" }
%"struct.llvm::AlignedCharArrayUnion" = type { [16 x i8] }
%"class.llvm::DenseMap.30" = type <{ ptr, i32, i32, i32, [4 x i8] }>
%"class.std::vector.33" = type { %"struct.std::_Vector_base.34" }
%"struct.std::_Vector_base.34" = type { %"struct.std::_Vector_base<std::pair<unsigned int, llvm::AttributeSet>, std::allocator<std::pair<unsigned int, llvm::AttributeSet>>>::_Vector_impl" }
%"struct.std::_Vector_base<std::pair<unsigned int, llvm::AttributeSet>, std::allocator<std::pair<unsigned int, llvm::AttributeSet>>>::_Vector_impl" = type { %"struct.std::_Vector_base<std::pair<unsigned int, llvm::AttributeSet>, std::allocator<std::pair<unsigned int, llvm::AttributeSet>>>::_Vector_impl_data" }
%"struct.std::_Vector_base<std::pair<unsigned int, llvm::AttributeSet>, std::allocator<std::pair<unsigned int, llvm::AttributeSet>>>::_Vector_impl_data" = type { ptr, ptr, ptr }
%"class.llvm::DenseMap.38" = type <{ ptr, i32, i32, i32, [4 x i8] }>
%"class.std::vector.41" = type { %"struct.std::_Vector_base.42" }
%"struct.std::_Vector_base.42" = type { %"struct.std::_Vector_base<llvm::AttributeList, std::allocator<llvm::AttributeList>>::_Vector_impl" }
%"struct.std::_Vector_base<llvm::AttributeList, std::allocator<llvm::AttributeList>>::_Vector_impl" = type { %"struct.std::_Vector_base<llvm::AttributeList, std::allocator<llvm::AttributeList>>::_Vector_impl_data" }
%"struct.std::_Vector_base<llvm::AttributeList, std::allocator<llvm::AttributeList>>::_Vector_impl_data" = type { ptr, ptr, ptr }
%"class.llvm::DenseMap.46" = type <{ ptr, i32, i32, i32, [4 x i8] }>
%"class.llvm::DenseMap.49" = type <{ ptr, i32, i32, i32, [4 x i8] }>
%"class.std::vector.52" = type { %"struct.std::_Vector_base.53" }
%"struct.std::_Vector_base.53" = type { %"struct.std::_Vector_base<const llvm::BasicBlock *, std::allocator<const llvm::BasicBlock *>>::_Vector_impl" }
%"struct.std::_Vector_base<const llvm::BasicBlock *, std::allocator<const llvm::BasicBlock *>>::_Vector_impl" = type { %"struct.std::_Vector_base<const llvm::BasicBlock *, std::allocator<const llvm::BasicBlock *>>::_Vector_impl_data" }
%"struct.std::_Vector_base<const llvm::BasicBlock *, std::allocator<const llvm::BasicBlock *>>::_Vector_impl_data" = type { ptr, ptr, ptr }

; Function Attrs: mustprogress nounwind uwtable
define linkonce_odr hidden noundef i32 @_ZN4llvm6detail19LeadingZerosCounterIjLm4EE5countEj(i32 noundef %0) #0 comdat align 2 {
  %2 = alloca i32, align 4
  %3 = alloca i32, align 4
  store i32 %0, ptr %3, align 4
  %4 = load i32, ptr %3, align 4
  %5 = icmp eq i32 %4, 0
  br i1 %5, label %6, label %7

6:                                                ; preds = %1
  store i32 32, ptr %2, align 4
  br label %10

7:                                                ; preds = %1
  %8 = load i32, ptr %3, align 4
  %9 = call i32 @llvm.ctlz.i32(i32 %8, i1 true)
  store i32 %9, ptr %2, align 4
  br label %10

10:                                               ; preds = %7, %6
  %11 = load i32, ptr %2, align 4
  ret i32 %11
}

; Function Attrs: mustprogress nounwind uwtable
define linkonce_odr noundef i32 @_ZN4llvm11countl_zeroIjEEiT_(i32 noundef %0) #0 comdat {
  %2 = alloca i32, align 4
  store i32 %0, ptr %2, align 4
  %3 = load i32, ptr %2, align 4
  %4 = call noundef i32 @_ZN4llvm6detail19LeadingZerosCounterIjLm4EE5countEj(i32 noundef %3)
  ret i32 %4
}

; Function Attrs: mustprogress nounwind uwtable
define linkonce_odr hidden noundef i32 @_ZN4llvm12Log2_32_CeilEj(i32 noundef %0) #0 comdat {
  %2 = alloca i32, align 4
  store i32 %0, ptr %2, align 4
  %3 = load i32, ptr %2, align 4
  %4 = sub i32 %3, 1
  %5 = call noundef i32 @_ZN4llvm11countl_zeroIjEEiT_(i32 noundef %4)
  %6 = sub nsw i32 32, %5
  ret i32 %6
}

; Function Attrs: mustprogress nounwind uwtable
define linkonce_odr hidden noundef i64 @_ZNKSt6vectorIPN4llvm4TypeESaIS2_EE4sizeEv(ptr noundef nonnull align 8 dereferenceable(24) %0) #0 comdat align 2 {
  %2 = alloca ptr, align 8
  store ptr %0, ptr %2, align 8
  %3 = load ptr, ptr %2, align 8
  %4 = getelementptr inbounds nuw %"struct.std::_Vector_base.1", ptr %3, i32 0, i32 0
  %5 = getelementptr inbounds nuw %"struct.std::_Vector_base<llvm::Type *, std::allocator<llvm::Type *>>::_Vector_impl_data", ptr %4, i32 0, i32 1
  %6 = load ptr, ptr %5, align 8
  %7 = getelementptr inbounds nuw %"struct.std::_Vector_base.1", ptr %3, i32 0, i32 0
  %8 = getelementptr inbounds nuw %"struct.std::_Vector_base<llvm::Type *, std::allocator<llvm::Type *>>::_Vector_impl_data", ptr %7, i32 0, i32 0
  %9 = load ptr, ptr %8, align 8
  %10 = ptrtoint ptr %6 to i64
  %11 = ptrtoint ptr %9 to i64
  %12 = sub i64 %10, %11
  %13 = sdiv exact i64 %12, 8
  ret i64 %13
}

; Function Attrs: mustprogress nounwind uwtable
define linkonce_odr hidden noundef nonnull align 8 dereferenceable(24) ptr @_ZNK4llvm15ValueEnumerator8getTypesEv(ptr noundef nonnull align 8 dereferenceable(492) %0) #0 comdat align 2 {
  %2 = alloca ptr, align 8
  store ptr %0, ptr %2, align 8
  %3 = load ptr, ptr %2, align 8
  %4 = getelementptr inbounds nuw %"class.llvm::ValueEnumerator", ptr %3, i32 0, i32 2
  ret ptr %4
}

; Function Attrs: mustprogress nounwind uwtable
define dso_local noundef i64 @_ZNK4llvm15ValueEnumerator33computeBitsRequiredForTypeIndicesEv(ptr noundef nonnull align 8 dereferenceable(492) %0) #0 align 2 {
  %2 = alloca ptr, align 8
  store ptr %0, ptr %2, align 8
  %3 = load ptr, ptr %2, align 8
  %4 = call noundef nonnull align 8 dereferenceable(24) ptr @_ZNK4llvm15ValueEnumerator8getTypesEv(ptr noundef nonnull align 8 dereferenceable(492) %3)
  %5 = call noundef i64 @_ZNKSt6vectorIPN4llvm4TypeESaIS2_EE4sizeEv(ptr noundef nonnull align 8 dereferenceable(24) %4) #12
  %6 = add i64 %5, 1
  %7 = trunc i64 %6 to i32
  %8 = call noundef i32 @_ZN4llvm12Log2_32_CeilEj(i32 noundef %7)
  %9 = zext i32 %8 to i64
  ret i64 %9
}