; Function Attrs: mustprogress nofree norecurse nosync nounwind willreturn memory(argmem: read) uwtable
define dso_local noundef range(i64 0, 33) i64 @_ZNK4llvm15ValueEnumerator33computeBitsRequiredForTypeIndicesEv(ptr nocapture noundef nonnull readonly align 8 dereferenceable(492) %0) local_unnamed_addr #4 align 2 {
  %2 = getelementptr inbounds nuw i8, ptr %0, i64 48
  %3 = getelementptr inbounds i8, ptr %0, i64 56
  %4 = load ptr, ptr %3, align 8
  %5 = load ptr, ptr %2, align 8
  %6 = ptrtoint ptr %4 to i64
  %7 = ptrtoint ptr %5 to i64
  %8 = sub i64 %6, %7
  %9 = lshr exact i64 %8, 3
  %10 = trunc i64 %9 to i32
  %11 = tail call noundef range(i32 0, 33) i32 @llvm.ctlz.i32(i32 %10, i1 false)
  %12 = sub nuw nsw i32 32, %11
  %13 = zext nneg i32 %12 to i64
  ret i64 %13
}